target datalayout = "e-m:e-p270:32:32-p271:32:32-p272:64:64-i64:64-i128:128-f80:128-n8:16:32:64-S128"
target triple = "x86_64-unknown-linux-gnu"

%"class.Assimp::ScaleProcess" = type <{ %"class.Assimp::BaseProcess", float, [4 x i8] }>
%"class.Assimp::BaseProcess" = type { ptr, ptr, ptr }

@.str = private unnamed_addr constant [20 x i8] c"GLOBAL_SCALE_FACTOR\00", align 1
@.str.1 = private unnamed_addr constant [17 x i8] c"APP_SCALE_FACTOR\00", align 1

; Function Attrs: mustprogress uwtable
define void @_ZN6Assimp12ScaleProcess15SetupPropertiesEPKNS_8ImporterE(ptr noundef nonnull align 8 dereferenceable(28) %this, ptr noundef %pImp) unnamed_addr #3 align 2 {
entry:
  %this.addr = alloca ptr, align 8
  %pImp.addr = alloca ptr, align 8
  %importerScale = alloca float, align 4
  store ptr %this, ptr %this.addr, align 8
  store ptr %pImp, ptr %pImp.addr, align 8
  %this1 = load ptr, ptr %this.addr, align 8
  %0 = load ptr, ptr %pImp.addr, align 8
  %call = call noundef float @_ZNK6Assimp8Importer16GetPropertyFloatEPKcf(ptr noundef nonnull align 8 dereferenceable(8) %0, ptr noundef @.str, float noundef 1.000000e+00)
  %mScale = getelementptr inbounds %"class.Assimp::ScaleProcess", ptr %this1, i32 0, i32 1
  store float %call, ptr %mScale, align 8
  %1 = load ptr, ptr %pImp.addr, align 8
  %call2 = call noundef float @_ZNK6Assimp8Importer16GetPropertyFloatEPKcf(ptr noundef nonnull align 8 dereferenceable(8) %1, ptr noundef @.str.1, float noundef 1.000000e+00)
  store float %call2, ptr %importerScale, align 4
  %2 = load float, ptr %importerScale, align 4
  %mScale3 = getelementptr inbounds %"class.Assimp::ScaleProcess", ptr %this1, i32 0, i32 1
  %3 = load float, ptr %mScale3, align 8
  %mul = fmul float %3, %2
  store float %mul, ptr %mScale3, align 8
  ret void
}