; Function Attrs: mustprogress uwtable
define void @_ZN6Assimp12ScaleProcess15SetupPropertiesEPKNS_8ImporterE(ptr nocapture noundef nonnull align 8 dereferenceable(28) %this, ptr noundef nonnull %pImp) unnamed_addr #5 align 2 {
entry:
  %call = tail call noundef float @_ZNK6Assimp8Importer16GetPropertyFloatEPKcf(ptr noundef nonnull align 8 dereferenceable(8) %pImp, ptr noundef nonnull @.str, float noundef 1.000000e+00)
  %mScale = getelementptr inbounds i8, ptr %this, i64 24
  store float %call, ptr %mScale, align 8
  %call2 = tail call noundef float @_ZNK6Assimp8Importer16GetPropertyFloatEPKcf(ptr noundef nonnull align 8 dereferenceable(8) %pImp, ptr noundef nonnull @.str.1, float noundef 1.000000e+00)
  %0 = load float, ptr %mScale, align 8
  %mul = fmul float %call2, %0
  store float %mul, ptr %mScale, align 8
  ret void
}